target datalayout = "e-m:e-p270:32:32-p271:32:32-p272:64:64-i64:64-i128:128-f80:128-n8:16:32:64-S128"
target triple = "x86_64-pc-linux-gnu"

%struct.t_commrec = type <{ i32, i32, i32, i32, ptr, ptr, i32, [4 x i8], ptr, i32, i32, %struct.gmx_nodecomm_t, %"class.std::unique_ptr.71", ptr, i32, [4 x i8] }>
%struct.gmx_nodecomm_t = type { i8, ptr, i32, ptr }
%"class.std::unique_ptr.71" = type { %"struct.std::__uniq_ptr_data.72" }
%"struct.std::__uniq_ptr_data.72" = type { %"class.std::__uniq_ptr_impl.73" }
%"class.std::__uniq_ptr_impl.73" = type { %"class.std::tuple.74" }
%"class.std::tuple.74" = type { %"struct.std::_Tuple_impl.75" }
%"struct.std::_Tuple_impl.75" = type { %"struct.std::_Head_base.78" }
%"struct.std::_Head_base.78" = type { ptr }
%struct.gmx_wallcycle = type <{ %"struct.gmx::EnumerationArray.434", i64, %"struct.gmx::EnumerationArray.435", ptr, %"class.std::vector.436", i32, i32, i64, i8, i8, %"struct.std::array.441", i8, i32, i8, [7 x i8] }>
%"struct.gmx::EnumerationArray.434" = type { [52 x %struct.wallcc_t] }
%struct.wallcc_t = type { i32, i64, i64 }
%"struct.gmx::EnumerationArray.435" = type { [41 x %struct.wallcc_t] }
%"class.std::vector.436" = type { %"struct.std::_Vector_base.437" }
%"struct.std::_Vector_base.437" = type { %"struct.std::_Vector_base<wallcc_t, std::allocator<wallcc_t>>::_Vector_impl" }
%"struct.std::_Vector_base<wallcc_t, std::allocator<wallcc_t>>::_Vector_impl" = type { %"struct.std::_Vector_base<wallcc_t, std::allocator<wallcc_t>>::_Vector_impl_data" }
%"struct.std::_Vector_base<wallcc_t, std::allocator<wallcc_t>>::_Vector_impl_data" = type { ptr, ptr, ptr }
%"struct.std::array.441" = type { %"struct.std::__array_traits<WallCycleCounter, 0>::_Type" }
%"struct.std::__array_traits<WallCycleCounter, 0>::_Type" = type { i8 }
%"class.__gnu_cxx::__normal_iterator.443" = type { ptr }

; Function Attrs: mustprogress nounwind uwtable
define linkonce_odr noundef nonnull align 8 dereferenceable(8) ptr @_ZNK9__gnu_cxx17__normal_iteratorIPK8wallcc_tSt6vectorIS1_SaIS1_EEE4baseEv(ptr noundef nonnull align 8 dereferenceable(8) %0) #3 comdat align 2 {
  %2 = alloca ptr, align 8
  store ptr %0, ptr %2, align 8
  %3 = load ptr, ptr %2, align 8
  %4 = getelementptr inbounds %"class.__gnu_cxx::__normal_iterator.443", ptr %3, i32 0, i32 0
  ret ptr %4
}

; Function Attrs: mustprogress nounwind uwtable
define linkonce_odr void @_ZN9__gnu_cxx17__normal_iteratorIPK8wallcc_tSt6vectorIS1_SaIS1_EEEC2ERKS3_(ptr noundef nonnull align 8 dereferenceable(8) %0, ptr noundef nonnull align 8 dereferenceable(8) %1) unnamed_addr #3 comdat align 2 {
  %3 = alloca ptr, align 8
  %4 = alloca ptr, align 8
  store ptr %0, ptr %3, align 8
  store ptr %1, ptr %4, align 8
  %5 = load ptr, ptr %3, align 8
  %6 = getelementptr inbounds %"class.__gnu_cxx::__normal_iterator.443", ptr %5, i32 0, i32 0
  %7 = load ptr, ptr %4, align 8
  %8 = load ptr, ptr %7, align 8
  store ptr %8, ptr %6, align 8
  ret void
}

; Function Attrs: mustprogress nounwind uwtable
define linkonce_odr noundef nonnull align 8 dereferenceable(24) ptr @_ZNSt6vectorI8wallcc_tSaIS0_EEixEm(ptr noundef nonnull align 8 dereferenceable(24) %0, i64 noundef %1) #3 comdat align 2 {
  %3 = alloca ptr, align 8
  %4 = alloca i64, align 8
  store ptr %0, ptr %3, align 8
  store i64 %1, ptr %4, align 8
  %5 = load ptr, ptr %3, align 8
  %6 = getelementptr inbounds %"struct.std::_Vector_base.437", ptr %5, i32 0, i32 0
  %7 = getelementptr inbounds %"struct.std::_Vector_base<wallcc_t, std::allocator<wallcc_t>>::_Vector_impl_data", ptr %6, i32 0, i32 0
  %8 = load ptr, ptr %7, align 8
  %9 = load i64, ptr %4, align 8
  %10 = getelementptr inbounds %struct.wallcc_t, ptr %8, i64 %9
  ret ptr %10
}

; Function Attrs: mustprogress nounwind uwtable
define linkonce_odr noundef zeroext i1 @_ZN9__gnu_cxxeqIPK8wallcc_tSt6vectorIS1_SaIS1_EEEEbRKNS_17__normal_iteratorIT_T0_EESC_(ptr noundef nonnull align 8 dereferenceable(8) %0, ptr noundef nonnull align 8 dereferenceable(8) %1) #3 comdat {
  %3 = alloca ptr, align 8
  %4 = alloca ptr, align 8
  store ptr %0, ptr %3, align 8
  store ptr %1, ptr %4, align 8
  %5 = load ptr, ptr %3, align 8
  %6 = call noundef nonnull align 8 dereferenceable(8) ptr @_ZNK9__gnu_cxx17__normal_iteratorIPK8wallcc_tSt6vectorIS1_SaIS1_EEE4baseEv(ptr noundef nonnull align 8 dereferenceable(8) %5) #4
  %7 = load ptr, ptr %6, align 8
  %8 = load ptr, ptr %4, align 8
  %9 = call noundef nonnull align 8 dereferenceable(8) ptr @_ZNK9__gnu_cxx17__normal_iteratorIPK8wallcc_tSt6vectorIS1_SaIS1_EEE4baseEv(ptr noundef nonnull align 8 dereferenceable(8) %8) #4
  %10 = load ptr, ptr %9, align 8
  %11 = icmp eq ptr %7, %10
  ret i1 %11
}

; Function Attrs: mustprogress nounwind uwtable
define linkonce_odr ptr @_ZNKSt6vectorI8wallcc_tSaIS0_EE3endEv(ptr noundef nonnull align 8 dereferenceable(24) %0) #3 comdat align 2 {
  %2 = alloca %"class.__gnu_cxx::__normal_iterator.443", align 8
  %3 = alloca ptr, align 8
  store ptr %0, ptr %3, align 8
  %4 = load ptr, ptr %3, align 8
  %5 = getelementptr inbounds %"struct.std::_Vector_base.437", ptr %4, i32 0, i32 0
  %6 = getelementptr inbounds %"struct.std::_Vector_base<wallcc_t, std::allocator<wallcc_t>>::_Vector_impl_data", ptr %5, i32 0, i32 1
  call void @_ZN9__gnu_cxx17__normal_iteratorIPK8wallcc_tSt6vectorIS1_SaIS1_EEEC2ERKS3_(ptr noundef nonnull align 8 dereferenceable(8) %2, ptr noundef nonnull align 8 dereferenceable(8) %6) #4
  %7 = getelementptr inbounds %"class.__gnu_cxx::__normal_iterator.443", ptr %2, i32 0, i32 0
  %8 = load ptr, ptr %7, align 8
  ret ptr %8
}

; Function Attrs: mustprogress nounwind uwtable
define linkonce_odr ptr @_ZNKSt6vectorI8wallcc_tSaIS0_EE5beginEv(ptr noundef nonnull align 8 dereferenceable(24) %0) #3 comdat align 2 {
  %2 = alloca %"class.__gnu_cxx::__normal_iterator.443", align 8
  %3 = alloca ptr, align 8
  store ptr %0, ptr %3, align 8
  %4 = load ptr, ptr %3, align 8
  %5 = getelementptr inbounds %"struct.std::_Vector_base.437", ptr %4, i32 0, i32 0
  %6 = getelementptr inbounds %"struct.std::_Vector_base<wallcc_t, std::allocator<wallcc_t>>::_Vector_impl_data", ptr %5, i32 0, i32 0
  call void @_ZN9__gnu_cxx17__normal_iteratorIPK8wallcc_tSt6vectorIS1_SaIS1_EEEC2ERKS3_(ptr noundef nonnull align 8 dereferenceable(8) %2, ptr noundef nonnull align 8 dereferenceable(8) %6) #4
  %7 = getelementptr inbounds %"class.__gnu_cxx::__normal_iterator.443", ptr %2, i32 0, i32 0
  %8 = load ptr, ptr %7, align 8
  ret ptr %8
}

; Function Attrs: mustprogress nounwind uwtable
define linkonce_odr void @_Z19wallcycle_all_startP13gmx_wallcycle16WallCycleCountery(ptr noundef %0, i32 noundef %1, i64 noundef %2) #3 comdat {
  %4 = alloca ptr, align 8
  %5 = alloca i32, align 4
  %6 = alloca i64, align 8
  store ptr %0, ptr %4, align 8
  store i32 %1, ptr %5, align 4
  store i64 %2, ptr %6, align 8
  %7 = load i32, ptr %5, align 4
  %8 = load ptr, ptr %4, align 8
  %9 = getelementptr inbounds %struct.gmx_wallcycle, ptr %8, i32 0, i32 6
  store i32 %7, ptr %9, align 4
  %10 = load i64, ptr %6, align 8
  %11 = load ptr, ptr %4, align 8
  %12 = getelementptr inbounds %struct.gmx_wallcycle, ptr %11, i32 0, i32 7
  store i64 %10, ptr %12, align 8
  ret void
}

; Function Attrs: mustprogress nounwind uwtable
define linkonce_odr void @_Z18wallcycle_all_stopP13gmx_wallcycle16WallCycleCountery(ptr noundef %0, i32 noundef %1, i64 noundef %2) #3 comdat {
  %4 = alloca ptr, align 8
  %5 = alloca i32, align 4
  %6 = alloca i64, align 8
  %7 = alloca i32, align 4
  %8 = alloca i32, align 4
  store ptr %0, ptr %4, align 8
  store i32 %1, ptr %5, align 4
  store i64 %2, ptr %6, align 8
  %9 = load ptr, ptr %4, align 8
  %10 = getelementptr inbounds %struct.gmx_wallcycle, ptr %9, i32 0, i32 6
  %11 = load i32, ptr %10, align 4
  store i32 %11, ptr %7, align 4
  %12 = load i32, ptr %5, align 4
  store i32 %12, ptr %8, align 4
  %13 = load ptr, ptr %4, align 8
  %14 = getelementptr inbounds %struct.gmx_wallcycle, ptr %13, i32 0, i32 4
  %15 = load i32, ptr %7, align 4
  %16 = mul nsw i32 %15, 52
  %17 = load i32, ptr %8, align 4
  %18 = add nsw i32 %16, %17
  %19 = sext i32 %18 to i64
  %20 = call noundef nonnull align 8 dereferenceable(24) ptr @_ZNSt6vectorI8wallcc_tSaIS0_EEixEm(ptr noundef nonnull align 8 dereferenceable(24) %14, i64 noundef %19) #4
  %21 = getelementptr inbounds %struct.wallcc_t, ptr %20, i32 0, i32 0
  %22 = load i32, ptr %21, align 8
  %23 = add nsw i32 %22, 1
  store i32 %23, ptr %21, align 8
  %24 = load i64, ptr %6, align 8
  %25 = load ptr, ptr %4, align 8
  %26 = getelementptr inbounds %struct.gmx_wallcycle, ptr %25, i32 0, i32 7
  %27 = load i64, ptr %26, align 8
  %28 = sub i64 %24, %27
  %29 = load ptr, ptr %4, align 8
  %30 = getelementptr inbounds %struct.gmx_wallcycle, ptr %29, i32 0, i32 4
  %31 = load i32, ptr %7, align 4
  %32 = mul nsw i32 %31, 52
  %33 = load i32, ptr %8, align 4
  %34 = add nsw i32 %32, %33
  %35 = sext i32 %34 to i64
  %36 = call noundef nonnull align 8 dereferenceable(24) ptr @_ZNSt6vectorI8wallcc_tSaIS0_EEixEm(ptr noundef nonnull align 8 dereferenceable(24) %30, i64 noundef %35) #4
  %37 = getelementptr inbounds %struct.wallcc_t, ptr %36, i32 0, i32 1
  %38 = load i64, ptr %37, align 8
  %39 = add i64 %38, %28
  store i64 %39, ptr %37, align 8
  ret void
}

; Function Attrs: mustprogress nounwind uwtable
define linkonce_odr noundef zeroext i1 @_ZNKSt6vectorI8wallcc_tSaIS0_EE5emptyEv(ptr noundef nonnull align 8 dereferenceable(24) %0) #3 comdat align 2 {
  %2 = alloca ptr, align 8
  %3 = alloca %"class.__gnu_cxx::__normal_iterator.443", align 8
  %4 = alloca %"class.__gnu_cxx::__normal_iterator.443", align 8
  store ptr %0, ptr %2, align 8
  %5 = load ptr, ptr %2, align 8
  %6 = call ptr @_ZNKSt6vectorI8wallcc_tSaIS0_EE5beginEv(ptr noundef nonnull align 8 dereferenceable(24) %5) #4
  %7 = getelementptr inbounds %"class.__gnu_cxx::__normal_iterator.443", ptr %3, i32 0, i32 0
  store ptr %6, ptr %7, align 8
  %8 = call ptr @_ZNKSt6vectorI8wallcc_tSaIS0_EE3endEv(ptr noundef nonnull align 8 dereferenceable(24) %5) #4
  %9 = getelementptr inbounds %"class.__gnu_cxx::__normal_iterator.443", ptr %4, i32 0, i32 0
  store ptr %8, ptr %9, align 8
  %10 = call noundef zeroext i1 @_ZN9__gnu_cxxeqIPK8wallcc_tSt6vectorIS1_SaIS1_EEEEbRKNS_17__normal_iteratorIT_T0_EESC_(ptr noundef nonnull align 8 dereferenceable(8) %3, ptr noundef nonnull align 8 dereferenceable(8) %4) #4
  ret i1 %10
}

; Function Attrs: mustprogress nounwind uwtable
define linkonce_odr noundef nonnull align 8 dereferenceable(24) ptr @_ZN3gmx16EnumerationArrayI16WallCycleCounter8wallcc_tLS1_52EEixES1_(ptr noundef nonnull align 8 dereferenceable(1248) %0, i32 noundef %1) #3 comdat align 2 {
  %3 = alloca ptr, align 8
  %4 = alloca i32, align 4
  store ptr %0, ptr %3, align 8
  store i32 %1, ptr %4, align 4
  %5 = load ptr, ptr %3, align 8
  %6 = getelementptr inbounds %"struct.gmx::EnumerationArray.434", ptr %5, i32 0, i32 0
  %7 = load i32, ptr %4, align 4
  %8 = sext i32 %7 to i64
  %9 = getelementptr inbounds [52 x %struct.wallcc_t], ptr %6, i64 0, i64 %8
  ret ptr %9
}

; Function Attrs: mustprogress nounwind uwtable
define internal noundef i64 @_ZL15gmx_cycles_readv() #3 {
  %1 = alloca i32, align 4
  %2 = alloca i32, align 4
  %3 = alloca i64, align 8
  %4 = alloca i64, align 8
  %5 = call { i32, i32 } asm sideeffect "rdtscp", "={ax},={dx},~{ecx},~{dirflag},~{fpsr},~{flags}"() #4, !srcloc !26
  %6 = extractvalue { i32, i32 } %5, 0
  %7 = extractvalue { i32, i32 } %5, 1
  store i32 %6, ptr %1, align 4
  store i32 %7, ptr %2, align 4
  %8 = load i32, ptr %1, align 4
  %9 = zext i32 %8 to i64
  store i64 %9, ptr %3, align 8
  %10 = load i32, ptr %2, align 4
  %11 = zext i32 %10 to i64
  store i64 %11, ptr %4, align 8
  %12 = load i64, ptr %3, align 8
  %13 = load i64, ptr %4, align 8
  %14 = shl i64 %13, 32
  %15 = or i64 %12, %14
  ret i64 %15
}

; Function Attrs: mustprogress nounwind uwtable
define internal void @_ZL13traceRangeEndv() #3 {
  ret void
}

; Function Attrs: mustprogress uwtable
define linkonce_odr noundef double @_Z14wallcycle_stopP13gmx_wallcycle16WallCycleCounter(ptr noundef %0, i32 noundef %1) #2 comdat {
  %3 = alloca double, align 8
  %4 = alloca ptr, align 8
  %5 = alloca i32, align 4
  %6 = alloca i64, align 8
  %7 = alloca i64, align 8
  store ptr %0, ptr %4, align 8
  store i32 %1, ptr %5, align 4
  %8 = load i32, ptr %5, align 4
  %9 = icmp sge i32 %8, 1
  br i1 %9, label %10, label %11

10:                                               ; preds = %2
  call void @_ZL13traceRangeEndv()
  br label %11

11:                                               ; preds = %10, %2
  %12 = load ptr, ptr %4, align 8
  %13 = icmp eq ptr %12, null
  br i1 %13, label %14, label %15

14:                                               ; preds = %11
  store double 0.000000e+00, ptr %3, align 8
  br label %82

15:                                               ; preds = %11
  %16 = load ptr, ptr %4, align 8
  call void @_Z16wallcycleBarrierP13gmx_wallcycle(ptr noundef %16)
  %17 = call noundef i64 @_ZL15gmx_cycles_readv()
  store i64 %17, ptr %6, align 8
  %18 = load i64, ptr %6, align 8
  %19 = load ptr, ptr %4, align 8
  %20 = getelementptr inbounds %struct.gmx_wallcycle, ptr %19, i32 0, i32 0
  %21 = load i32, ptr %5, align 4
  %22 = call noundef nonnull align 8 dereferenceable(24) ptr @_ZN3gmx16EnumerationArrayI16WallCycleCounter8wallcc_tLS1_52EEixES1_(ptr noundef nonnull align 8 dereferenceable(1248) %20, i32 noundef %21)
  %23 = getelementptr inbounds %struct.wallcc_t, ptr %22, i32 0, i32 2
  %24 = load i64, ptr %23, align 8
  %25 = icmp uge i64 %18, %24
  br i1 %25, label %26, label %35

26:                                               ; preds = %15
  %27 = load i64, ptr %6, align 8
  %28 = load ptr, ptr %4, align 8
  %29 = getelementptr inbounds %struct.gmx_wallcycle, ptr %28, i32 0, i32 0
  %30 = load i32, ptr %5, align 4
  %31 = call noundef nonnull align 8 dereferenceable(24) ptr @_ZN3gmx16EnumerationArrayI16WallCycleCounter8wallcc_tLS1_52EEixES1_(ptr noundef nonnull align 8 dereferenceable(1248) %29, i32 noundef %30)
  %32 = getelementptr inbounds %struct.wallcc_t, ptr %31, i32 0, i32 2
  %33 = load i64, ptr %32, align 8
  %34 = sub i64 %27, %33
  store i64 %34, ptr %7, align 8
  br label %38

35:                                               ; preds = %15
  store i64 0, ptr %7, align 8
  %36 = load ptr, ptr %4, align 8
  %37 = getelementptr inbounds %struct.gmx_wallcycle, ptr %36, i32 0, i32 8
  store i8 1, ptr %37, align 8
  br label %38

38:                                               ; preds = %35, %26
  %39 = load i64, ptr %7, align 8
  %40 = load ptr, ptr %4, align 8
  %41 = getelementptr inbounds %struct.gmx_wallcycle, ptr %40, i32 0, i32 0
  %42 = load i32, ptr %5, align 4
  %43 = call noundef nonnull align 8 dereferenceable(24) ptr @_ZN3gmx16EnumerationArrayI16WallCycleCounter8wallcc_tLS1_52EEixES1_(ptr noundef nonnull align 8 dereferenceable(1248) %41, i32 noundef %42)
  %44 = getelementptr inbounds %struct.wallcc_t, ptr %43, i32 0, i32 1
  %45 = load i64, ptr %44, align 8
  %46 = add i64 %45, %39
  store i64 %46, ptr %44, align 8
  %47 = load ptr, ptr %4, align 8
  %48 = getelementptr inbounds %struct.gmx_wallcycle, ptr %47, i32 0, i32 0
  %49 = load i32, ptr %5, align 4
  %50 = call noundef nonnull align 8 dereferenceable(24) ptr @_ZN3gmx16EnumerationArrayI16WallCycleCounter8wallcc_tLS1_52EEixES1_(ptr noundef nonnull align 8 dereferenceable(1248) %48, i32 noundef %49)
  %51 = getelementptr inbounds %struct.wallcc_t, ptr %50, i32 0, i32 0
  %52 = load i32, ptr %51, align 8
  %53 = add nsw i32 %52, 1
  store i32 %53, ptr %51, align 8
  %54 = load ptr, ptr %4, align 8
  %55 = getelementptr inbounds %struct.gmx_wallcycle, ptr %54, i32 0, i32 4
  %56 = call noundef zeroext i1 @_ZNKSt6vectorI8wallcc_tSaIS0_EE5emptyEv(ptr noundef nonnull align 8 dereferenceable(24) %55) #4
  br i1 %56, label %79, label %57

57:                                               ; preds = %38
  %58 = load ptr, ptr %4, align 8
  %59 = getelementptr inbounds %struct.gmx_wallcycle, ptr %58, i32 0, i32 5
  %60 = load i32, ptr %59, align 8
  %61 = add nsw i32 %60, -1
  store i32 %61, ptr %59, align 8
  %62 = load i32, ptr %5, align 4
  %63 = icmp eq i32 %62, 0
  br i1 %63, label %64, label %68

64:                                               ; preds = %57
  %65 = load ptr, ptr %4, align 8
  %66 = load i32, ptr %5, align 4
  %67 = load i64, ptr %6, align 8
  call void @_Z18wallcycle_all_stopP13gmx_wallcycle16WallCycleCountery(ptr noundef %65, i32 noundef %66, i64 noundef %67)
  br label %78

68:                                               ; preds = %57
  %69 = load ptr, ptr %4, align 8
  %70 = getelementptr inbounds %struct.gmx_wallcycle, ptr %69, i32 0, i32 5
  %71 = load i32, ptr %70, align 8
  %72 = icmp eq i32 %71, 2
  br i1 %72, label %73, label %77

73:                                               ; preds = %68
  %74 = load ptr, ptr %4, align 8
  %75 = load i32, ptr %5, align 4
  %76 = load i64, ptr %6, align 8
  call void @_Z19wallcycle_all_startP13gmx_wallcycle16WallCycleCountery(ptr noundef %74, i32 noundef %75, i64 noundef %76)
  br label %77

77:                                               ; preds = %73, %68
  br label %78

78:                                               ; preds = %77, %64
  br label %79

79:                                               ; preds = %78, %38
  %80 = load i64, ptr %7, align 8
  %81 = uitofp i64 %80 to double
  store double %81, ptr %3, align 8
  br label %82

82:                                               ; preds = %79, %14
  %83 = load double, ptr %3, align 8
  ret double %83
}

; Function Attrs: mustprogress nounwind uwtable
define linkonce_odr noundef i32 @_Z17getThisRankDutiesPK9t_commrec(ptr noundef %0) #3 comdat {
  %2 = alloca ptr, align 8
  store ptr %0, ptr %2, align 8
  %3 = load ptr, ptr %2, align 8
  %4 = getelementptr inbounds %struct.t_commrec, ptr %3, i32 0, i32 14
  %5 = load i32, ptr %4, align 8
  ret i32 %5
}

; Function Attrs: mustprogress uwtable
define internal void @_ZL11em_time_endP23gmx_walltime_accountingP13gmx_wallcycle(ptr noundef %0, ptr noundef %1) #2 {
  %3 = alloca ptr, align 8
  %4 = alloca ptr, align 8
  store ptr %0, ptr %3, align 8
  store ptr %1, ptr %4, align 8
  %5 = load ptr, ptr %4, align 8
  %6 = call noundef double @_Z14wallcycle_stopP13gmx_wallcycle16WallCycleCounter(ptr noundef %5, i32 noundef 0)
  %7 = load ptr, ptr %3, align 8
  call void @_Z28walltime_accounting_end_timeP23gmx_walltime_accounting(ptr noundef %7)
  ret void
}

; Function Attrs: mustprogress uwtable
define linkonce_odr noundef zeroext i1 @_Z15thisRankHasDutyPK9t_commreci(ptr noundef %0, i32 noundef %1) #2 comdat {
  %3 = alloca ptr, align 8
  %4 = alloca i32, align 4
  store ptr %0, ptr %3, align 8
  store i32 %1, ptr %4, align 4
  %5 = load ptr, ptr %3, align 8
  %6 = call noundef i32 @_Z17getThisRankDutiesPK9t_commrec(ptr noundef %5)
  %7 = load i32, ptr %4, align 4
  %8 = and i32 %6, %7
  %9 = icmp ne i32 %8, 0
  ret i1 %9
}

; Function Attrs: mustprogress uwtable
define internal void @_ZL9finish_emPK9t_commrecP10gmx_mdoutfP23gmx_walltime_accountingP13gmx_wallcycle(ptr noundef %0, ptr noundef %1, ptr noundef %2, ptr noundef %3) #2 {
  %5 = alloca ptr, align 8
  %6 = alloca ptr, align 8
  %7 = alloca ptr, align 8
  %8 = alloca ptr, align 8
  store ptr %0, ptr %5, align 8
  store ptr %1, ptr %6, align 8
  store ptr %2, ptr %7, align 8
  store ptr %3, ptr %8, align 8
  %9 = load ptr, ptr %5, align 8
  %10 = call noundef zeroext i1 @_Z15thisRankHasDutyPK9t_commreci(ptr noundef %9, i32 noundef 2)
  br i1 %10, label %13, label %11

11:                                               ; preds = %4
  %12 = load ptr, ptr %5, align 8
  call void @_Z19gmx_pme_send_finishPK9t_commrec(ptr noundef %12)
  br label %13

13:                                               ; preds = %11, %4
  %14 = load ptr, ptr %6, align 8
  call void @_Z11done_mdoutfP10gmx_mdoutf(ptr noundef %14)
  %15 = load ptr, ptr %7, align 8
  %16 = load ptr, ptr %8, align 8
  call void @_ZL11em_time_endP23gmx_walltime_accountingP13gmx_wallcycle(ptr noundef %15, ptr noundef %16)
  ret void
}