; Function Attrs: mustprogress uwtable
define internal fastcc void @_ZL9finish_emPK9t_commrecP10gmx_mdoutfP23gmx_walltime_accountingP13gmx_wallcycle(ptr noundef %0, ptr noundef %1, ptr noundef %2, ptr noundef %3) unnamed_addr #1 {
  %5 = getelementptr inbounds i8, ptr %0, i64 104
  %6 = load i32, ptr %5, align 8
  %7 = and i32 %6, 2
  %.not = icmp eq i32 %7, 0
  br i1 %.not, label %8, label %9

8:                                                ; preds = %4
  tail call void @_Z19gmx_pme_send_finishPK9t_commrec(ptr noundef nonnull %0)
  br label %9

9:                                                ; preds = %8, %4
  tail call void @_Z11done_mdoutfP10gmx_mdoutf(ptr noundef %1)
  %10 = icmp eq ptr %3, null
  br i1 %10, label %_ZL11em_time_endP23gmx_walltime_accountingP13gmx_wallcycle.exit, label %11

11:                                               ; preds = %9
  tail call void @_Z16wallcycleBarrierP13gmx_wallcycle(ptr noundef nonnull %3)
  %12 = tail call { i32, i32 } asm sideeffect "rdtscp", "={ax},={dx},~{ecx},~{dirflag},~{fpsr},~{flags}"() #17, !srcloc !5
  %13 = extractvalue { i32, i32 } %12, 0
  %14 = extractvalue { i32, i32 } %12, 1
  %15 = zext i32 %13 to i64
  %16 = zext i32 %14 to i64
  %17 = shl nuw i64 %16, 32
  %18 = or disjoint i64 %17, %15
  %19 = getelementptr inbounds i8, ptr %3, i64 16
  %20 = load i64, ptr %19, align 8
  %.not.i.i = icmp ult i64 %18, %20
  br i1 %.not.i.i, label %23, label %21

21:                                               ; preds = %11
  %22 = sub i64 %18, %20
  br label %25

23:                                               ; preds = %11
  %24 = getelementptr inbounds i8, ptr %3, i64 2288
  store i8 1, ptr %24, align 8
  br label %25

25:                                               ; preds = %23, %21
  %.0.i.i = phi i64 [ %22, %21 ], [ 0, %23 ]
  %26 = getelementptr inbounds i8, ptr %3, i64 8
  %27 = load i64, ptr %26, align 8
  %28 = add i64 %27, %.0.i.i
  store i64 %28, ptr %26, align 8
  %29 = load i32, ptr %3, align 8
  %30 = add nsw i32 %29, 1
  store i32 %30, ptr %3, align 8
  %31 = getelementptr inbounds i8, ptr %3, i64 2248
  %32 = load ptr, ptr %31, align 8
  %33 = getelementptr inbounds i8, ptr %3, i64 2256
  %34 = load ptr, ptr %33, align 8
  %35 = icmp eq ptr %32, %34
  br i1 %35, label %_ZL11em_time_endP23gmx_walltime_accountingP13gmx_wallcycle.exit, label %36

36:                                               ; preds = %25
  %37 = getelementptr inbounds i8, ptr %3, i64 2272
  %38 = load i32, ptr %37, align 8
  %39 = add nsw i32 %38, -1
  store i32 %39, ptr %37, align 8
  %40 = getelementptr inbounds i8, ptr %3, i64 2276
  %41 = load i32, ptr %40, align 4
  %42 = mul nsw i32 %41, 52
  %43 = sext i32 %42 to i64
  %44 = getelementptr inbounds %struct.wallcc_t, ptr %32, i64 %43
  %45 = load i32, ptr %44, align 8
  %46 = add nsw i32 %45, 1
  store i32 %46, ptr %44, align 8
  %47 = getelementptr inbounds i8, ptr %3, i64 2280
  %48 = load i64, ptr %47, align 8
  %49 = sub i64 %18, %48
  %50 = load ptr, ptr %31, align 8
  %51 = getelementptr inbounds %struct.wallcc_t, ptr %50, i64 %43, i32 1
  %52 = load i64, ptr %51, align 8
  %53 = add i64 %49, %52
  store i64 %53, ptr %51, align 8
  br label %_ZL11em_time_endP23gmx_walltime_accountingP13gmx_wallcycle.exit

_ZL11em_time_endP23gmx_walltime_accountingP13gmx_wallcycle.exit: ; preds = %9, %25, %36
  tail call void @_Z28walltime_accounting_end_timeP23gmx_walltime_accounting(ptr noundef %2)
  ret void
}